; ModuleID = '4/1912.c'
source_filename = "4/1912.c"
target datalayout = "e-m:e-p270:32:32-p271:32:32-p272:64:64-i64:64-f80:128-n8:16:32:64-S128"
target triple = "x86_64-pc-linux-gnu"

@.str = private unnamed_addr constant [6 x i8] c"%d %d\00", align 1
@.str.1 = private unnamed_addr constant [3 x i8] c"%d\00", align 1
@.str.2 = private unnamed_addr constant [4 x i8] c"%d\0A\00", align 1

; Function Attrs: noinline nounwind uwtable
define dso_local i32 @main() #0 {
  %1 = alloca i32, align 4
  %2 = alloca i32, align 4
  %3 = alloca i32, align 4
  %4 = alloca i32, align 4
  %5 = alloca i32, align 4
  %6 = alloca i32, align 4
  %7 = alloca [10000 x i32], align 16
  store i32 0, i32* %1, align 4
  %8 = call i32 (i8*, ...) @__isoc99_scanf(i8* getelementptr inbounds ([6 x i8], [6 x i8]* @.str, i64 0, i64 0), i32* %5, i32* %6)
  store i32 0, i32* %2, align 4
  br label %9

9:                                                ; preds = %32, %0
  %10 = load i32, i32* %2, align 4
  %11 = load i32, i32* %5, align 4
  %12 = icmp slt i32 %10, %11
  br i1 %12, label %13, label %35

13:                                               ; preds = %9
  store i32 0, i32* %3, align 4
  br label %14

14:                                               ; preds = %28, %13
  %15 = load i32, i32* %3, align 4
  %16 = load i32, i32* %6, align 4
  %17 = icmp slt i32 %15, %16
  br i1 %17, label %18, label %31

18:                                               ; preds = %14
  %19 = getelementptr inbounds [10000 x i32], [10000 x i32]* %7, i64 0, i64 0
  %20 = load i32, i32* %2, align 4
  %21 = mul nsw i32 %20, 100
  %22 = sext i32 %21 to i64
  %23 = getelementptr inbounds i32, i32* %19, i64 %22
  %24 = load i32, i32* %3, align 4
  %25 = sext i32 %24 to i64
  %26 = getelementptr inbounds i32, i32* %23, i64 %25
  %27 = call i32 (i8*, ...) @__isoc99_scanf(i8* getelementptr inbounds ([3 x i8], [3 x i8]* @.str.1, i64 0, i64 0), i32* %26)
  br label %28

28:                                               ; preds = %18
  %29 = load i32, i32* %3, align 4
  %30 = add nsw i32 %29, 1
  store i32 %30, i32* %3, align 4
  br label %14

31:                                               ; preds = %14
  br label %32

32:                                               ; preds = %31
  %33 = load i32, i32* %2, align 4
  %34 = add nsw i32 %33, 1
  store i32 %34, i32* %2, align 4
  br label %9

35:                                               ; preds = %9
  store i32 0, i32* %2, align 4
  br label %36

36:                                               ; preds = %68, %35
  %37 = load i32, i32* %2, align 4
  %38 = load i32, i32* %6, align 4
  %39 = icmp slt i32 %37, %38
  br i1 %39, label %40, label %71

40:                                               ; preds = %36
  %41 = load i32, i32* %2, align 4
  store i32 %41, i32* %3, align 4
  store i32 0, i32* %4, align 4
  br label %42

42:                                               ; preds = %62, %40
  %43 = load i32, i32* %3, align 4
  %44 = icmp sge i32 %43, 0
  br i1 %44, label %45, label %49

45:                                               ; preds = %42
  %46 = load i32, i32* %4, align 4
  %47 = load i32, i32* %5, align 4
  %48 = icmp slt i32 %46, %47
  br label %49

49:                                               ; preds = %45, %42
  %50 = phi i1 [ false, %42 ], [ %48, %45 ]
  br i1 %50, label %51, label %67

51:                                               ; preds = %49
  %52 = getelementptr inbounds [10000 x i32], [10000 x i32]* %7, i64 0, i64 0
  %53 = load i32, i32* %4, align 4
  %54 = mul nsw i32 %53, 100
  %55 = sext i32 %54 to i64
  %56 = getelementptr inbounds i32, i32* %52, i64 %55
  %57 = load i32, i32* %3, align 4
  %58 = sext i32 %57 to i64
  %59 = getelementptr inbounds i32, i32* %56, i64 %58
  %60 = load i32, i32* %59, align 4
  %61 = call i32 (i8*, ...) @printf(i8* getelementptr inbounds ([4 x i8], [4 x i8]* @.str.2, i64 0, i64 0), i32 %60)
  br label %62

62:                                               ; preds = %51
  %63 = load i32, i32* %3, align 4
  %64 = add nsw i32 %63, -1
  store i32 %64, i32* %3, align 4
  %65 = load i32, i32* %4, align 4
  %66 = add nsw i32 %65, 1
  store i32 %66, i32* %4, align 4
  br label %42

67:                                               ; preds = %49
  br label %68

68:                                               ; preds = %67
  %69 = load i32, i32* %2, align 4
  %70 = add nsw i32 %69, 1
  store i32 %70, i32* %2, align 4
  br label %36

71:                                               ; preds = %36
  store i32 1, i32* %2, align 4
  br label %72

72:                                               ; preds = %106, %71
  %73 = load i32, i32* %2, align 4
  %74 = load i32, i32* %5, align 4
  %75 = icmp slt i32 %73, %74
  br i1 %75, label %76, label %109

76:                                               ; preds = %72
  %77 = load i32, i32* %6, align 4
  %78 = sub nsw i32 %77, 1
  store i32 %78, i32* %3, align 4
  %79 = load i32, i32* %2, align 4
  store i32 %79, i32* %4, align 4
  br label %80

80:                                               ; preds = %100, %76
  %81 = load i32, i32* %3, align 4
  %82 = icmp sge i32 %81, 0
  br i1 %82, label %83, label %87

83:                                               ; preds = %80
  %84 = load i32, i32* %4, align 4
  %85 = load i32, i32* %5, align 4
  %86 = icmp slt i32 %84, %85
  br label %87

87:                                               ; preds = %83, %80
  %88 = phi i1 [ false, %80 ], [ %86, %83 ]
  br i1 %88, label %89, label %105

89:                                               ; preds = %87
  %90 = getelementptr inbounds [10000 x i32], [10000 x i32]* %7, i64 0, i64 0
  %91 = load i32, i32* %4, align 4
  %92 = mul nsw i32 %91, 100
  %93 = sext i32 %92 to i64
  %94 = getelementptr inbounds i32, i32* %90, i64 %93
  %95 = load i32, i32* %3, align 4
  %96 = sext i32 %95 to i64
  %97 = getelementptr inbounds i32, i32* %94, i64 %96
  %98 = load i32, i32* %97, align 4
  %99 = call i32 (i8*, ...) @printf(i8* getelementptr inbounds ([4 x i8], [4 x i8]* @.str.2, i64 0, i64 0), i32 %98)
  br label %100

100:                                              ; preds = %89
  %101 = load i32, i32* %3, align 4
  %102 = add nsw i32 %101, -1
  store i32 %102, i32* %3, align 4
  %103 = load i32, i32* %4, align 4
  %104 = add nsw i32 %103, 1
  store i32 %104, i32* %4, align 4
  br label %80

105:                                              ; preds = %87
  br label %106

106:                                              ; preds = %105
  %107 = load i32, i32* %2, align 4
  %108 = add nsw i32 %107, 1
  store i32 %108, i32* %2, align 4
  br label %72

109:                                              ; preds = %72
  ret i32 0
}

declare dso_local i32 @__isoc99_scanf(i8*, ...) #1

declare dso_local i32 @printf(i8*, ...) #1


!llvm.module.flags = !{!0}
!llvm.ident = !{!1}

!0 = !{i32 1, !"wchar_size", i32 4}
!1 = !{!"clang version 10.0.0-4ubuntu1 "}
